target datalayout = "e-m:e-p270:32:32-p271:32:32-p272:64:64-i64:64-i128:128-f80:128-n8:16:32:64-S128"
target triple = "x86_64-pc-linux-gnu"

%struct.mbox_ctx = type { ptr, ptr, ptr, ptr, i32, ptr }
%struct.cli_ctx_tag = type { ptr, ptr, ptr, ptr, ptr, ptr, ptr, i64, ptr, i32, i32, ptr, i32, i32, ptr, [16 x i8], ptr, ptr, ptr, ptr, ptr, ptr, %struct.timeval, i8, i8 }
%struct.timeval = type { i64, i64 }
%struct.message = type { ptr, i32, i32, ptr, ptr, ptr, ptr, ptr, ptr, i64, i32, ptr, ptr, ptr, ptr, ptr, i8, i8, i8, i8, ptr }
%struct.cl_engine = type { i32, i32, i32, [2 x i32], i32, i32, i32, ptr, i32, i64, i32, i32, i64, i64, i32, i32, i32, i32, ptr, ptr, ptr, ptr, ptr, ptr, ptr, ptr, ptr, ptr, ptr, ptr, ptr, ptr, ptr, ptr, ptr, ptr, ptr, i64, ptr, %struct.crtmgr, ptr, ptr, ptr, ptr, ptr, ptr, ptr, ptr, ptr, ptr, ptr, ptr, ptr, ptr, ptr, ptr, ptr, %struct.cli_all_bc, [7 x ptr], [7 x i32], i32, i32, i32, i32, i64, i64, i64, i64, i64, ptr, ptr, ptr, ptr, ptr, ptr, ptr, ptr, ptr, i32, i32, i32, i64, i64, i64, ptr }
%struct.crtmgr = type { ptr, i32 }
%struct.cli_all_bc = type { ptr, i32, ptr, %struct.cli_environment, i32 }
%struct.cli_environment = type { i32, i32, i32, i32, i32, i32, i32, [65 x i8], [65 x i8], [65 x i8], [65 x i8], [65 x i8], [65 x i8], [65 x i8], i8, i8, i8, i8, i8, i8, i8, i8, i8 }
%struct.cli_dconf = type { i32, i32, i32, i32, i32, i32, i32, i32, i32, i32, i32 }
%struct.tag_arguments_tag = type { i32, i32, ptr, ptr, ptr }

@.str.177 = private unnamed_addr constant [19 x i8] c"PH:Phishing found\0A\00", align 1
@.str.178 = private unnamed_addr constant [57 x i8] c"Viruses pointed to by URLs not scanned in large message\0A\00", align 1
@.str.179 = private unnamed_addr constant [38 x i8] c"getHrefs: calling html_normalise_mem\0A\00", align 1
@.str.180 = private unnamed_addr constant [39 x i8] c"getHrefs: html_normalise_mem returned\0A\00", align 1
@.str.181 = private unnamed_addr constant [5 x i8] c"href\00", align 1

; Function Attrs: nounwind uwtable
define internal void @extract_text_urls(ptr noundef %0, i64 noundef %1, ptr noundef %2) #0 {
  %4 = alloca ptr, align 8
  %5 = alloca i64, align 8
  %6 = alloca ptr, align 8
  %7 = alloca [1024 x i8], align 16
  %8 = alloca i64, align 8
  %9 = alloca i32, align 4
  %10 = alloca i64, align 8
  %11 = alloca i8, align 1
  store ptr %0, ptr %4, align 8
  store i64 %1, ptr %5, align 8
  store ptr %2, ptr %6, align 8
  store i64 0, ptr %8, align 8
  br label %12

12:                                               ; preds = %102, %3
  %13 = load i64, ptr %8, align 8
  %14 = add i64 %13, 10
  %15 = load i64, ptr %5, align 8
  %16 = icmp ult i64 %14, %15
  br i1 %16, label %17, label %105

17:                                               ; preds = %12
  %18 = load ptr, ptr %4, align 8
  %19 = load i64, ptr %8, align 8
  %20 = getelementptr inbounds i8, ptr %18, i64 %19
  %21 = load i32, ptr %20, align 1
  store i32 %21, ptr %9, align 4
  %22 = load i32, ptr %9, align 4
  %23 = or i32 %22, 538976288
  store i32 %23, ptr %9, align 4
  %24 = load i32, ptr %9, align 4
  %25 = icmp eq i32 %24, 1886680168
  br i1 %25, label %26, label %50

26:                                               ; preds = %17
  %27 = load ptr, ptr %4, align 8
  %28 = load i64, ptr %8, align 8
  %29 = add i64 %28, 4
  %30 = getelementptr inbounds i8, ptr %27, i64 %29
  %31 = load i8, ptr %30, align 1
  %32 = zext i8 %31 to i32
  %33 = icmp eq i32 %32, 58
  br i1 %33, label %53, label %34

34:                                               ; preds = %26
  %35 = load ptr, ptr %4, align 8
  %36 = load i64, ptr %8, align 8
  %37 = add i64 %36, 5
  %38 = getelementptr inbounds i8, ptr %35, i64 %37
  %39 = load i8, ptr %38, align 1
  %40 = zext i8 %39 to i32
  %41 = icmp eq i32 %40, 115
  br i1 %41, label %42, label %50

42:                                               ; preds = %34
  %43 = load ptr, ptr %4, align 8
  %44 = load i64, ptr %8, align 8
  %45 = add i64 %44, 6
  %46 = getelementptr inbounds i8, ptr %43, i64 %45
  %47 = load i8, ptr %46, align 1
  %48 = zext i8 %47 to i32
  %49 = icmp eq i32 %48, 58
  br i1 %49, label %53, label %50

50:                                               ; preds = %42, %34, %17
  %51 = load i32, ptr %9, align 4
  %52 = icmp eq i32 %51, 980448358
  br i1 %52, label %53, label %101

53:                                               ; preds = %50, %42, %26
  store i64 4, ptr %10, align 8
  br label %54

54:                                               ; preds = %85, %53
  %55 = load i64, ptr %8, align 8
  %56 = load i64, ptr %10, align 8
  %57 = add i64 %55, %56
  %58 = load i64, ptr %5, align 8
  %59 = icmp ult i64 %57, %58
  br i1 %59, label %60, label %63

60:                                               ; preds = %54
  %61 = load i64, ptr %10, align 8
  %62 = icmp ult i64 %61, 1023
  br label %63

63:                                               ; preds = %60, %54
  %64 = phi i1 [ false, %54 ], [ %62, %60 ]
  br i1 %64, label %65, label %88

65:                                               ; preds = %63
  %66 = load ptr, ptr %4, align 8
  %67 = load i64, ptr %8, align 8
  %68 = load i64, ptr %10, align 8
  %69 = add i64 %67, %68
  %70 = getelementptr inbounds i8, ptr %66, i64 %69
  %71 = load i8, ptr %70, align 1
  store i8 %71, ptr %11, align 1
  %72 = load i8, ptr %11, align 1
  %73 = zext i8 %72 to i32
  %74 = icmp eq i32 %73, 32
  br i1 %74, label %83, label %75

75:                                               ; preds = %65
  %76 = load i8, ptr %11, align 1
  %77 = zext i8 %76 to i32
  %78 = icmp eq i32 %77, 10
  br i1 %78, label %83, label %79

79:                                               ; preds = %75
  %80 = load i8, ptr %11, align 1
  %81 = zext i8 %80 to i32
  %82 = icmp eq i32 %81, 9
  br i1 %82, label %83, label %84

83:                                               ; preds = %79, %75, %65
  br label %88

84:                                               ; preds = %79
  br label %85

85:                                               ; preds = %84
  %86 = load i64, ptr %10, align 8
  %87 = add i64 %86, 1
  store i64 %87, ptr %10, align 8
  br label %54

88:                                               ; preds = %83, %63
  %89 = getelementptr inbounds [1024 x i8], ptr %7, i64 0, i64 0
  %90 = load ptr, ptr %4, align 8
  %91 = load i64, ptr %8, align 8
  %92 = getelementptr inbounds i8, ptr %90, i64 %91
  %93 = load i64, ptr %10, align 8
  call void @llvm.memcpy.p0.p0.i64(ptr align 16 %89, ptr align 1 %92, i64 %93, i1 false)
  %94 = load i64, ptr %10, align 8
  %95 = getelementptr inbounds [1024 x i8], ptr %7, i64 0, i64 %94
  store i8 0, ptr %95, align 1
  %96 = load ptr, ptr %6, align 8
  %97 = getelementptr inbounds [1024 x i8], ptr %7, i64 0, i64 0
  call void @html_tag_arg_add(ptr noundef %96, ptr noundef @.str.181, ptr noundef %97)
  %98 = load i64, ptr %10, align 8
  %99 = load i64, ptr %8, align 8
  %100 = add i64 %99, %98
  store i64 %100, ptr %8, align 8
  br label %101

101:                                              ; preds = %88, %50
  br label %102

102:                                              ; preds = %101
  %103 = load i64, ptr %8, align 8
  %104 = add i64 %103, 1
  store i64 %104, ptr %8, align 8
  br label %12

105:                                              ; preds = %12
  ret void
}

; Function Attrs: nounwind uwtable
define internal void @hrefs_done(ptr noundef %0, ptr noundef %1) #0 {
  %3 = alloca ptr, align 8
  %4 = alloca ptr, align 8
  store ptr %0, ptr %3, align 8
  store ptr %1, ptr %4, align 8
  %5 = load ptr, ptr %3, align 8
  %6 = icmp ne ptr %5, null
  br i1 %6, label %7, label %9

7:                                                ; preds = %2
  %8 = load ptr, ptr %3, align 8
  call void @blobDestroy(ptr noundef %8)
  br label %9

9:                                                ; preds = %7, %2
  %10 = load ptr, ptr %4, align 8
  call void @html_tag_arg_free(ptr noundef %10)
  ret void
}

; Function Attrs: nounwind uwtable
define internal ptr @getHrefs(ptr noundef %0, ptr noundef %1, ptr noundef %2) #0 {
  %4 = alloca ptr, align 8
  %5 = alloca ptr, align 8
  %6 = alloca ptr, align 8
  %7 = alloca ptr, align 8
  %8 = alloca ptr, align 8
  %9 = alloca ptr, align 8
  %10 = alloca i64, align 8
  store ptr %0, ptr %5, align 8
  store ptr %1, ptr %6, align 8
  store ptr %2, ptr %7, align 8
  %11 = load ptr, ptr %6, align 8
  %12 = call ptr @messageToBlob(ptr noundef %11, i32 noundef 0)
  store ptr %12, ptr %9, align 8
  %13 = load ptr, ptr %9, align 8
  %14 = icmp eq ptr %13, null
  br i1 %14, label %15, label %16

15:                                               ; preds = %3
  store ptr null, ptr %4, align 8
  br label %67

16:                                               ; preds = %3
  %17 = load ptr, ptr %9, align 8
  %18 = call i64 @blobGetDataSize(ptr noundef %17)
  store i64 %18, ptr %10, align 8
  %19 = load i64, ptr %10, align 8
  %20 = icmp eq i64 %19, 0
  br i1 %20, label %21, label %23

21:                                               ; preds = %16
  %22 = load ptr, ptr %9, align 8
  call void @blobDestroy(ptr noundef %22)
  store ptr null, ptr %4, align 8
  br label %67

23:                                               ; preds = %16
  %24 = load i64, ptr %10, align 8
  %25 = icmp ugt i64 %24, 102400
  br i1 %25, label %26, label %28

26:                                               ; preds = %23
  call void (ptr, ...) @cli_dbgmsg(ptr noundef @.str.178)
  %27 = load ptr, ptr %9, align 8
  call void @blobDestroy(ptr noundef %27)
  store ptr null, ptr %4, align 8
  br label %67

28:                                               ; preds = %23
  %29 = load ptr, ptr %7, align 8
  %30 = getelementptr inbounds %struct.tag_arguments_tag, ptr %29, i32 0, i32 0
  store i32 0, ptr %30, align 8
  %31 = load ptr, ptr %7, align 8
  %32 = getelementptr inbounds %struct.tag_arguments_tag, ptr %31, i32 0, i32 3
  store ptr null, ptr %32, align 8
  %33 = load ptr, ptr %7, align 8
  %34 = getelementptr inbounds %struct.tag_arguments_tag, ptr %33, i32 0, i32 2
  store ptr null, ptr %34, align 8
  %35 = load ptr, ptr %7, align 8
  %36 = getelementptr inbounds %struct.tag_arguments_tag, ptr %35, i32 0, i32 4
  store ptr null, ptr %36, align 8
  call void (ptr, ...) @cli_dbgmsg(ptr noundef @.str.179)
  %37 = load ptr, ptr %9, align 8
  %38 = call ptr @blobGetData(ptr noundef %37)
  store ptr %38, ptr %8, align 8
  %39 = load ptr, ptr %5, align 8
  %40 = load ptr, ptr %8, align 8
  %41 = load i64, ptr %10, align 8
  %42 = load ptr, ptr %7, align 8
  %43 = load ptr, ptr %6, align 8
  %44 = getelementptr inbounds %struct.message, ptr %43, i32 0, i32 8
  %45 = load ptr, ptr %44, align 8
  %46 = getelementptr inbounds %struct.cli_ctx_tag, ptr %45, i32 0, i32 16
  %47 = load ptr, ptr %46, align 8
  %48 = call zeroext i1 @html_normalise_mem(ptr noundef %39, ptr noundef %40, i64 noundef %41, ptr noundef null, ptr noundef %42, ptr noundef %47)
  br i1 %48, label %51, label %49

49:                                               ; preds = %28
  %50 = load ptr, ptr %9, align 8
  call void @blobDestroy(ptr noundef %50)
  store ptr null, ptr %4, align 8
  br label %67

51:                                               ; preds = %28
  call void (ptr, ...) @cli_dbgmsg(ptr noundef @.str.180)
  %52 = load ptr, ptr %7, align 8
  %53 = getelementptr inbounds %struct.tag_arguments_tag, ptr %52, i32 0, i32 0
  %54 = load i32, ptr %53, align 8
  %55 = icmp ne i32 %54, 0
  br i1 %55, label %65, label %56

56:                                               ; preds = %51
  %57 = load ptr, ptr %7, align 8
  %58 = getelementptr inbounds %struct.tag_arguments_tag, ptr %57, i32 0, i32 1
  %59 = load i32, ptr %58, align 4
  %60 = icmp ne i32 %59, 0
  br i1 %60, label %61, label %65

61:                                               ; preds = %56
  %62 = load ptr, ptr %8, align 8
  %63 = load i64, ptr %10, align 8
  %64 = load ptr, ptr %7, align 8
  call void @extract_text_urls(ptr noundef %62, i64 noundef %63, ptr noundef %64)
  br label %65

65:                                               ; preds = %61, %56, %51
  %66 = load ptr, ptr %9, align 8
  store ptr %66, ptr %4, align 8
  br label %67

67:                                               ; preds = %65, %49, %26, %21, %15
  %68 = load ptr, ptr %4, align 8
  ret ptr %68
}

; Function Attrs: nounwind uwtable
define internal void @checkURLs(ptr noundef %0, ptr noundef %1, ptr noundef %2, i32 noundef %3) #0 {
  %5 = alloca ptr, align 8
  %6 = alloca ptr, align 8
  %7 = alloca ptr, align 8
  %8 = alloca i32, align 4
  %9 = alloca ptr, align 8
  %10 = alloca %struct.tag_arguments_tag, align 8
  store ptr %0, ptr %5, align 8
  store ptr %1, ptr %6, align 8
  store ptr %2, ptr %7, align 8
  store i32 %3, ptr %8, align 4
  %11 = load ptr, ptr %7, align 8
  %12 = load i32, ptr %11, align 4
  %13 = icmp eq i32 %12, 3
  br i1 %13, label %14, label %15

14:                                               ; preds = %4
  br label %76

15:                                               ; preds = %4
  %16 = load ptr, ptr %6, align 8
  %17 = getelementptr inbounds %struct.mbox_ctx, ptr %16, i32 0, i32 3
  %18 = load ptr, ptr %17, align 8
  %19 = getelementptr inbounds %struct.cli_ctx_tag, ptr %18, i32 0, i32 6
  %20 = load ptr, ptr %19, align 8
  %21 = getelementptr inbounds %struct.cl_engine, ptr %20, i32 0, i32 2
  %22 = load i32, ptr %21, align 8
  %23 = and i32 %22, 8
  %24 = icmp ne i32 %23, 0
  br i1 %24, label %25, label %35

25:                                               ; preds = %15
  %26 = load ptr, ptr %6, align 8
  %27 = getelementptr inbounds %struct.mbox_ctx, ptr %26, i32 0, i32 3
  %28 = load ptr, ptr %27, align 8
  %29 = getelementptr inbounds %struct.cli_ctx_tag, ptr %28, i32 0, i32 16
  %30 = load ptr, ptr %29, align 8
  %31 = getelementptr inbounds %struct.cli_dconf, ptr %30, i32 0, i32 7
  %32 = load i32, ptr %31, align 4
  %33 = and i32 %32, 1
  %34 = icmp ne i32 %33, 0
  br label %35

35:                                               ; preds = %25, %15
  %36 = phi i1 [ false, %15 ], [ %34, %25 ]
  %37 = zext i1 %36 to i32
  %38 = getelementptr inbounds %struct.tag_arguments_tag, ptr %10, i32 0, i32 1
  store i32 %37, ptr %38, align 4
  %39 = getelementptr inbounds %struct.tag_arguments_tag, ptr %10, i32 0, i32 1
  %40 = load i32, ptr %39, align 4
  %41 = icmp ne i32 %40, 0
  br i1 %41, label %43, label %42

42:                                               ; preds = %35
  br label %76

43:                                               ; preds = %35
  %44 = getelementptr inbounds %struct.tag_arguments_tag, ptr %10, i32 0, i32 0
  store i32 0, ptr %44, align 8
  %45 = getelementptr inbounds %struct.tag_arguments_tag, ptr %10, i32 0, i32 3
  store ptr null, ptr %45, align 8
  %46 = getelementptr inbounds %struct.tag_arguments_tag, ptr %10, i32 0, i32 2
  store ptr null, ptr %46, align 8
  %47 = getelementptr inbounds %struct.tag_arguments_tag, ptr %10, i32 0, i32 4
  store ptr null, ptr %47, align 8
  %48 = load ptr, ptr %6, align 8
  %49 = getelementptr inbounds %struct.mbox_ctx, ptr %48, i32 0, i32 3
  %50 = load ptr, ptr %49, align 8
  %51 = load ptr, ptr %5, align 8
  %52 = call ptr @getHrefs(ptr noundef %50, ptr noundef %51, ptr noundef %10)
  store ptr %52, ptr %9, align 8
  %53 = load ptr, ptr %9, align 8
  %54 = icmp ne ptr %53, null
  br i1 %54, label %55, label %74

55:                                               ; preds = %43
  %56 = getelementptr inbounds %struct.tag_arguments_tag, ptr %10, i32 0, i32 1
  %57 = load i32, ptr %56, align 4
  %58 = icmp ne i32 %57, 0
  br i1 %58, label %59, label %73

59:                                               ; preds = %55
  %60 = load ptr, ptr %6, align 8
  %61 = getelementptr inbounds %struct.mbox_ctx, ptr %60, i32 0, i32 3
  %62 = load ptr, ptr %61, align 8
  %63 = call i32 @phishingScan(ptr noundef %62, ptr noundef %10)
  %64 = icmp eq i32 %63, 1
  br i1 %64, label %65, label %72

65:                                               ; preds = %59
  %66 = load ptr, ptr %5, align 8
  %67 = getelementptr inbounds %struct.message, ptr %66, i32 0, i32 19
  %68 = load i8, ptr %67, align 1
  %69 = and i8 %68, -2
  %70 = or i8 %69, 1
  store i8 %70, ptr %67, align 1
  %71 = load ptr, ptr %7, align 8
  store i32 3, ptr %71, align 4
  call void (ptr, ...) @cli_dbgmsg(ptr noundef @.str.177)
  br label %72

72:                                               ; preds = %65, %59
  br label %73

73:                                               ; preds = %72, %55
  br label %74

74:                                               ; preds = %73, %43
  %75 = load ptr, ptr %9, align 8
  call void @hrefs_done(ptr noundef %75, ptr noundef %10)
  br label %76

76:                                               ; preds = %74, %42, %14
  ret void
}