; Function Attrs: nounwind uwtable
define internal fastcc void @checkURLs(ptr noundef %0, ptr nocapture noundef readonly %1, ptr nocapture noundef %2) unnamed_addr #0 {
  %4 = alloca [1024 x i8], align 16
  %5 = alloca %struct.tag_arguments_tag, align 8
  %6 = load i32, ptr %2, align 4
  %7 = icmp eq i32 %6, 3
  br i1 %7, label %.thread, label %8

8:                                                ; preds = %3
  %9 = getelementptr inbounds i8, ptr %1, i64 24
  %10 = load ptr, ptr %9, align 8
  %11 = getelementptr inbounds i8, ptr %10, i64 48
  %12 = load ptr, ptr %11, align 8
  %13 = getelementptr inbounds i8, ptr %12, i64 8
  %14 = load i32, ptr %13, align 8
  %15 = and i32 %14, 8
  %.not = icmp eq i32 %15, 0
  br i1 %.not, label %.thread, label %16

16:                                               ; preds = %8
  %17 = getelementptr inbounds i8, ptr %10, i64 120
  %18 = load ptr, ptr %17, align 8
  %19 = getelementptr inbounds i8, ptr %18, i64 28
  %20 = load i32, ptr %19, align 4
  %21 = and i32 %20, 1
  %.not24 = icmp eq i32 %21, 0
  %22 = getelementptr inbounds i8, ptr %5, i64 4
  store i32 %21, ptr %22, align 4
  br i1 %.not24, label %.thread, label %23

23:                                               ; preds = %16
  store i32 0, ptr %5, align 8
  %24 = getelementptr inbounds i8, ptr %5, i64 8
  call void @llvm.memset.p0.i64(ptr noundef nonnull align 8 dereferenceable(24) %24, i8 0, i64 24, i1 false)
  %25 = tail call ptr @messageToBlob(ptr noundef %0, i32 noundef 0) #19
  %26 = icmp eq ptr %25, null
  br i1 %26, label %hrefs_done.exit, label %27

27:                                               ; preds = %23
  %28 = tail call i64 @blobGetDataSize(ptr noundef nonnull %25) #19
  %29 = icmp eq i64 %28, 0
  br i1 %29, label %30, label %31

30:                                               ; preds = %27
  tail call void @blobDestroy(ptr noundef nonnull %25) #19
  br label %hrefs_done.exit

31:                                               ; preds = %27
  %32 = icmp ugt i64 %28, 102400
  br i1 %32, label %33, label %34

33:                                               ; preds = %31
  tail call void (ptr, ...) @cli_dbgmsg(ptr noundef nonnull @.str.178) #19
  tail call void @blobDestroy(ptr noundef nonnull %25) #19
  br label %hrefs_done.exit

34:                                               ; preds = %31
  store i32 0, ptr %5, align 8
  call void @llvm.memset.p0.i64(ptr noundef nonnull align 8 dereferenceable(24) %24, i8 0, i64 24, i1 false)
  tail call void (ptr, ...) @cli_dbgmsg(ptr noundef nonnull @.str.179) #19
  %35 = tail call ptr @blobGetData(ptr noundef nonnull %25) #19
  %36 = getelementptr inbounds i8, ptr %0, i64 56
  %37 = load ptr, ptr %36, align 8
  %38 = getelementptr inbounds i8, ptr %37, i64 120
  %39 = load ptr, ptr %38, align 8
  %40 = call zeroext i1 @html_normalise_mem(ptr noundef nonnull %10, ptr noundef %35, i64 noundef %28, ptr noundef null, ptr noundef nonnull %5, ptr noundef %39) #19
  br i1 %40, label %42, label %41

41:                                               ; preds = %34
  call void @blobDestroy(ptr noundef nonnull %25) #19
  br label %hrefs_done.exit

42:                                               ; preds = %34
  call void (ptr, ...) @cli_dbgmsg(ptr noundef nonnull @.str.180) #19
  %43 = load i32, ptr %5, align 8
  %.not.i = icmp ne i32 %43, 0
  %44 = load i32, ptr %22, align 4
  %.not26.i = icmp eq i32 %44, 0
  %or.cond23 = select i1 %.not.i, i1 true, i1 %.not26.i
  br i1 %or.cond23, label %getHrefs.exit, label %45

45:                                               ; preds = %42
  call void @llvm.lifetime.start.p0(i64 1024, ptr nonnull %4)
  %46 = icmp ugt i64 %28, 10
  br i1 %46, label %.lr.ph58.i.i, label %extract_text_urls.exit.i

.lr.ph58.i.i:                                     ; preds = %45, %75
  %.056.i.i = phi i64 [ %76, %75 ], [ 0, %45 ]
  %47 = getelementptr inbounds i8, ptr %35, i64 %.056.i.i
  %48 = load i32, ptr %47, align 1
  %49 = or i32 %48, 538976288
  switch i32 %49, label %75 [
    i32 1886680168, label %50
    i32 980448358, label %62
  ]

50:                                               ; preds = %.lr.ph58.i.i
  %51 = getelementptr i8, ptr %47, i64 4
  %52 = load i8, ptr %51, align 1
  %53 = icmp eq i8 %52, 58
  br i1 %53, label %62, label %54

54:                                               ; preds = %50
  %55 = getelementptr i8, ptr %47, i64 5
  %56 = load i8, ptr %55, align 1
  %57 = icmp eq i8 %56, 115
  br i1 %57, label %58, label %75

58:                                               ; preds = %54
  %59 = getelementptr i8, ptr %47, i64 6
  %60 = load i8, ptr %59, align 1
  %61 = icmp eq i8 %60, 58
  br i1 %61, label %62, label %75

62:                                               ; preds = %58, %50, %.lr.ph58.i.i
  %63 = add i64 %.056.i.i, 4
  %64 = icmp ult i64 %63, %28
  br i1 %64, label %.lr.ph.i.i, label %._crit_edge.i.i

.lr.ph.i.i:                                       ; preds = %62, %68
  %65 = phi i64 [ %70, %68 ], [ %63, %62 ]
  %.04145.i.i = phi i64 [ %69, %68 ], [ 4, %62 ]
  %66 = getelementptr inbounds i8, ptr %35, i64 %65
  %67 = load i8, ptr %66, align 1
  switch i8 %67, label %68 [
    i8 32, label %._crit_edge.i.i
    i8 10, label %._crit_edge.i.i
    i8 9, label %._crit_edge.i.i
  ]

68:                                               ; preds = %.lr.ph.i.i
  %69 = add nuw nsw i64 %.04145.i.i, 1
  %70 = add i64 %69, %.056.i.i
  %71 = icmp ult i64 %70, %28
  %72 = icmp ult i64 %.04145.i.i, 1022
  %73 = and i1 %72, %71
  br i1 %73, label %.lr.ph.i.i, label %._crit_edge.i.i

._crit_edge.i.i:                                  ; preds = %68, %.lr.ph.i.i, %.lr.ph.i.i, %.lr.ph.i.i, %62
  %.041.lcssa.i.i = phi i64 [ 4, %62 ], [ %.04145.i.i, %.lr.ph.i.i ], [ %.04145.i.i, %.lr.ph.i.i ], [ %.04145.i.i, %.lr.ph.i.i ], [ %69, %68 ]
  %.lcssa.i.i = phi i64 [ %63, %62 ], [ %65, %.lr.ph.i.i ], [ %65, %.lr.ph.i.i ], [ %65, %.lr.ph.i.i ], [ %70, %68 ]
  call void @llvm.memcpy.p0.p0.i64(ptr noundef nonnull align 16 dereferenceable(1) %4, ptr noundef nonnull align 1 dereferenceable(1) %47, i64 %.041.lcssa.i.i, i1 false)
  %74 = getelementptr inbounds [1024 x i8], ptr %4, i64 0, i64 %.041.lcssa.i.i
  store i8 0, ptr %74, align 1
  call void @html_tag_arg_add(ptr noundef nonnull %5, ptr noundef nonnull @.str.181, ptr noundef nonnull %4) #19
  br label %75

75:                                               ; preds = %._crit_edge.i.i, %58, %54, %.lr.ph58.i.i
  %.1.i.i = phi i64 [ %.lcssa.i.i, %._crit_edge.i.i ], [ %.056.i.i, %58 ], [ %.056.i.i, %.lr.ph58.i.i ], [ %.056.i.i, %54 ]
  %76 = add i64 %.1.i.i, 1
  %77 = add i64 %.1.i.i, 11
  %78 = icmp ult i64 %77, %28
  br i1 %78, label %.lr.ph58.i.i, label %extract_text_urls.exit.i.loopexit

extract_text_urls.exit.i.loopexit:                ; preds = %75
  %.pre.pre = load i32, ptr %22, align 4
  br label %extract_text_urls.exit.i

extract_text_urls.exit.i:                         ; preds = %extract_text_urls.exit.i.loopexit, %45
  %.pre = phi i32 [ %.pre.pre, %extract_text_urls.exit.i.loopexit ], [ %44, %45 ]
  call void @llvm.lifetime.end.p0(i64 1024, ptr nonnull %4)
  br label %getHrefs.exit

getHrefs.exit:                                    ; preds = %42, %extract_text_urls.exit.i
  %79 = phi i32 [ %44, %42 ], [ %.pre, %extract_text_urls.exit.i ]
  %.not25 = icmp eq i32 %79, 0
  br i1 %.not25, label %.thread16, label %80

80:                                               ; preds = %getHrefs.exit
  %81 = load ptr, ptr %9, align 8
  %82 = call i32 @phishingScan(ptr noundef %81, ptr noundef nonnull %5) #19
  %83 = icmp eq i32 %82, 1
  br i1 %83, label %84, label %.thread16

84:                                               ; preds = %80
  %85 = getelementptr inbounds i8, ptr %0, i64 123
  %86 = load i8, ptr %85, align 1
  %87 = or i8 %86, 1
  store i8 %87, ptr %85, align 1
  store i32 3, ptr %2, align 4
  call void (ptr, ...) @cli_dbgmsg(ptr noundef nonnull @.str.177) #19
  br label %.thread16

.thread16:                                        ; preds = %getHrefs.exit, %80, %84
  call void @blobDestroy(ptr noundef nonnull %25) #19
  br label %hrefs_done.exit

hrefs_done.exit:                                  ; preds = %30, %33, %41, %23, %.thread16
  call void @html_tag_arg_free(ptr noundef nonnull %5) #19
  br label %.thread

.thread:                                          ; preds = %8, %16, %3, %hrefs_done.exit
  ret void
}